; Function Attrs: mustprogress nofree norecurse nosync nounwind willreturn memory(write, argmem: readwrite, inaccessiblemem: none) uwtable
define dso_local void @_Z15lua_pushintegerP9lua_Statei(ptr noundef captures(none) %0, i32 noundef %1) local_unnamed_addr #10 {
  %3 = getelementptr inbounds nuw i8, ptr %0, i64 8
  %4 = load ptr, ptr %3, align 8, !tbaa !19
  %5 = sitofp i32 %1 to double
  store double %5, ptr %4, align 8, !tbaa !21
  %6 = getelementptr inbounds nuw i8, ptr %4, i64 12
  store i32 3, ptr %6, align 4, !tbaa !47
  %7 = load ptr, ptr %3, align 8, !tbaa !19
  %8 = getelementptr inbounds nuw i8, ptr %7, i64 16
  store ptr %8, ptr %3, align 8, !tbaa !19
  ret void
}